target datalayout = "e-m:e-p270:32:32-p271:32:32-p272:64:64-i64:64-i128:128-f80:128-n8:16:32:64-S128"
target triple = "x86_64-pc-linux-gnu"

%struct.H5B2_t = type { ptr, ptr }
%struct.H5B2_hdr_t = type { %struct.H5C_cache_entry_t, %struct.H5B2_node_ptr_t, i8, i8, i32, i32, i16, i8, ptr, i64, i64, i64, i64, i8, i8, i8, ptr, ptr, ptr, ptr, ptr, ptr, ptr, i8, ptr, ptr, i64, ptr, ptr }
%struct.H5C_cache_entry_t = type { ptr, i64, i64, ptr, i8, ptr, i8, i8, i8, i8, i32, i8, i8, i8, i8, i8, i32, ptr, i32, i32, i32, i32, i32, i8, i8, ptr, ptr, ptr, ptr, ptr, ptr, i8, i32, i8, i64, ptr, i64, i64, i32, i8, i32, i32, i8, ptr, ptr, ptr }
%struct.H5B2_node_ptr_t = type { i64, i16, i64 }

@H5B2_init_g = global i8 0, align 1
@H5_libterm_g = external global i8, align 1
@.str = private unnamed_addr constant [98 x i8] c"generated/home/dtcxzyw/WorkSpace/Projects/compilers/llvm-opt-benchmark/bench/hdf5/hdf5/src/H5B2.c\00", align 1
@H5E_BTREE_g = external global i64, align 8
@H5E_CANTALLOC_g = external global i64, align 8
@.str.2 = private unnamed_addr constant [44 x i8] c"memory allocation failed for v2 B-tree info\00", align 1
@H5E_CANTPROTECT_g = external global i64, align 8
@.str.3 = private unnamed_addr constant [35 x i8] c"unable to protect v2 B-tree header\00", align 1
@H5E_CANTINC_g = external global i64, align 8
@.str.4 = private unnamed_addr constant [59 x i8] c"can't increment reference count on shared v2 B-tree header\00", align 1
@.str.5 = private unnamed_addr constant [64 x i8] c"can't increment file reference count on shared v2 B-tree header\00", align 1
@H5E_CANTUNPROTECT_g = external global i64, align 8
@.str.6 = private unnamed_addr constant [35 x i8] c"unable to release v2 B-tree header\00", align 1
@H5E_CANTCLOSEOBJ_g = external global i64, align 8
@.str.7 = private unnamed_addr constant [26 x i8] c"unable to close v2 B-tree\00", align 1
@__func__.H5B2_open = private unnamed_addr constant [10 x i8] c"H5B2_open\00", align 1
@H5E_CANTOPENOBJ_g = external global i64, align 8
@.str.8 = private unnamed_addr constant [38 x i8] c"can't open v2 B-tree pending deletion\00", align 1
@H5_H5B2_t_reg_free_list = internal global { i8, [3 x i8], i32, i32, [4 x i8], ptr, i64, ptr } { i8 0, [3 x i8] zeroinitializer, i32 0, i32 0, [4 x i8] zeroinitializer, ptr @.str.37, i64 16, ptr null }, align 8

; Function Attrs: nounwind uwtable
define ptr @H5B2_open(ptr noundef %0, i64 noundef %1, ptr noundef %2) #0 {
  %4 = alloca ptr, align 8
  %5 = alloca i64, align 8
  %6 = alloca ptr, align 8
  %7 = alloca ptr, align 8
  %8 = alloca ptr, align 8
  %9 = alloca ptr, align 8
  %10 = alloca i8, align 1
  store ptr %0, ptr %4, align 8, !tbaa !3
  store i64 %1, ptr %5, align 8, !tbaa !19
  store ptr %2, ptr %6, align 8, !tbaa !10
  call void @llvm.lifetime.start.p0(i64 8, ptr %7) #6
  store ptr null, ptr %7, align 8, !tbaa !11
  call void @llvm.lifetime.start.p0(i64 8, ptr %8) #6
  store ptr null, ptr %8, align 8, !tbaa !13
  call void @llvm.lifetime.start.p0(i64 8, ptr %9) #6
  store ptr null, ptr %9, align 8, !tbaa !11
  call void @llvm.lifetime.start.p0(i64 1, ptr %10) #6
  store i8 0, ptr %10, align 1, !tbaa !15
  %11 = load i8, ptr @H5B2_init_g, align 1, !tbaa !15, !range !17, !noundef !18
  %12 = trunc i8 %11 to i1
  br i1 %12, label %17, label %13

13:                                               ; preds = %3
  %14 = load i8, ptr @H5_libterm_g, align 1, !tbaa !15, !range !17, !noundef !18
  %15 = trunc i8 %14 to i1
  %16 = xor i1 %15, true
  br label %17

17:                                               ; preds = %13, %3
  %18 = phi i1 [ true, %3 ], [ %16, %13 ]
  %19 = xor i1 %18, true
  %20 = xor i1 %19, true
  %21 = zext i1 %20 to i32
  %22 = sext i32 %21 to i64
  %23 = call i64 @llvm.expect.i64(i64 %22, i64 1)
  %24 = icmp ne i64 %23, 0
  br i1 %24, label %25, label %205

25:                                               ; preds = %17
  %26 = load ptr, ptr %4, align 8, !tbaa !3
  %27 = load i64, ptr %5, align 8, !tbaa !19
  %28 = load ptr, ptr %6, align 8, !tbaa !10
  %29 = call ptr @H5B2__hdr_protect(ptr noundef %26, i64 noundef %27, ptr noundef %28, i32 noundef 128)
  store ptr %29, ptr %8, align 8, !tbaa !13
  %30 = icmp eq ptr null, %29
  br i1 %30, label %31, label %50

31:                                               ; preds = %25
  br label %32

32:                                               ; preds = %31
  br label %33

33:                                               ; preds = %32
  br label %34

34:                                               ; preds = %33
  %35 = load i64, ptr @H5E_BTREE_g, align 8, !tbaa !19
  %36 = load i64, ptr @H5E_CANTPROTECT_g, align 8, !tbaa !19
  %37 = call i32 (ptr, ptr, i32, i64, i64, ptr, ...) @H5E_printf_stack(ptr noundef @.str, ptr noundef @__func__.H5B2_open, i32 noundef 204, i64 noundef %35, i64 noundef %36, ptr noundef @.str.3)
  br label %38

38:                                               ; preds = %34
  br label %39

39:                                               ; preds = %38
  store i8 1, ptr %10, align 1, !tbaa !15
  %40 = load i8, ptr %10, align 1, !tbaa !15, !range !17, !noundef !18
  %41 = trunc i8 %40 to i1
  %42 = zext i1 %41 to i8
  store i8 %42, ptr %10, align 1, !tbaa !15
  br label %43

43:                                               ; preds = %39
  br label %44

44:                                               ; preds = %43
  br label %45

45:                                               ; preds = %44
  store ptr null, ptr %9, align 8, !tbaa !11
  br label %154

46:                                               ; No predecessors!
  br label %47

47:                                               ; preds = %46
  br label %48

48:                                               ; preds = %47
  br label %49

49:                                               ; preds = %48
  br label %50

50:                                               ; preds = %49, %25
  %51 = load ptr, ptr %8, align 8, !tbaa !13
  %52 = getelementptr inbounds nuw %struct.H5B2_hdr_t, ptr %51, i32 0, i32 13
  %53 = load i8, ptr %52, align 8, !tbaa !40, !range !17, !noundef !18
  %54 = trunc i8 %53 to i1
  br i1 %54, label %55, label %74

55:                                               ; preds = %50
  br label %56

56:                                               ; preds = %55
  br label %57

57:                                               ; preds = %56
  br label %58

58:                                               ; preds = %57
  %59 = load i64, ptr @H5E_BTREE_g, align 8, !tbaa !19
  %60 = load i64, ptr @H5E_CANTOPENOBJ_g, align 8, !tbaa !19
  %61 = call i32 (ptr, ptr, i32, i64, i64, ptr, ...) @H5E_printf_stack(ptr noundef @.str, ptr noundef @__func__.H5B2_open, i32 noundef 208, i64 noundef %59, i64 noundef %60, ptr noundef @.str.8)
  br label %62

62:                                               ; preds = %58
  br label %63

63:                                               ; preds = %62
  store i8 1, ptr %10, align 1, !tbaa !15
  %64 = load i8, ptr %10, align 1, !tbaa !15, !range !17, !noundef !18
  %65 = trunc i8 %64 to i1
  %66 = zext i1 %65 to i8
  store i8 %66, ptr %10, align 1, !tbaa !15
  br label %67

67:                                               ; preds = %63
  br label %68

68:                                               ; preds = %67
  br label %69

69:                                               ; preds = %68
  store ptr null, ptr %9, align 8, !tbaa !11
  br label %154

70:                                               ; No predecessors!
  br label %71

71:                                               ; preds = %70
  br label %72

72:                                               ; preds = %71
  br label %73

73:                                               ; preds = %72
  br label %74

74:                                               ; preds = %73, %50
  %75 = call noalias ptr @H5FL_reg_malloc(ptr noundef @H5_H5B2_t_reg_free_list)
  store ptr %75, ptr %7, align 8, !tbaa !11
  %76 = icmp eq ptr null, %75
  br i1 %76, label %77, label %96

77:                                               ; preds = %74
  br label %78

78:                                               ; preds = %77
  br label %79

79:                                               ; preds = %78
  br label %80

80:                                               ; preds = %79
  %81 = load i64, ptr @H5E_BTREE_g, align 8, !tbaa !19
  %82 = load i64, ptr @H5E_CANTALLOC_g, align 8, !tbaa !19
  %83 = call i32 (ptr, ptr, i32, i64, i64, ptr, ...) @H5E_printf_stack(ptr noundef @.str, ptr noundef @__func__.H5B2_open, i32 noundef 212, i64 noundef %81, i64 noundef %82, ptr noundef @.str.2)
  br label %84

84:                                               ; preds = %80
  br label %85

85:                                               ; preds = %84
  store i8 1, ptr %10, align 1, !tbaa !15
  %86 = load i8, ptr %10, align 1, !tbaa !15, !range !17, !noundef !18
  %87 = trunc i8 %86 to i1
  %88 = zext i1 %87 to i8
  store i8 %88, ptr %10, align 1, !tbaa !15
  br label %89

89:                                               ; preds = %85
  br label %90

90:                                               ; preds = %89
  br label %91

91:                                               ; preds = %90
  store ptr null, ptr %9, align 8, !tbaa !11
  br label %154

92:                                               ; No predecessors!
  br label %93

93:                                               ; preds = %92
  br label %94

94:                                               ; preds = %93
  br label %95

95:                                               ; preds = %94
  br label %96

96:                                               ; preds = %95, %74
  %97 = load ptr, ptr %8, align 8, !tbaa !13
  %98 = load ptr, ptr %7, align 8, !tbaa !11
  %99 = getelementptr inbounds nuw %struct.H5B2_t, ptr %98, i32 0, i32 0
  store ptr %97, ptr %99, align 8, !tbaa !21
  %100 = load ptr, ptr %7, align 8, !tbaa !11
  %101 = getelementptr inbounds nuw %struct.H5B2_t, ptr %100, i32 0, i32 0
  %102 = load ptr, ptr %101, align 8, !tbaa !21
  %103 = call i32 @H5B2__hdr_incr(ptr noundef %102)
  %104 = icmp slt i32 %103, 0
  br i1 %104, label %105, label %124

105:                                              ; preds = %96
  br label %106

106:                                              ; preds = %105
  br label %107

107:                                              ; preds = %106
  br label %108

108:                                              ; preds = %107
  %109 = load i64, ptr @H5E_BTREE_g, align 8, !tbaa !19
  %110 = load i64, ptr @H5E_CANTINC_g, align 8, !tbaa !19
  %111 = call i32 (ptr, ptr, i32, i64, i64, ptr, ...) @H5E_printf_stack(ptr noundef @.str, ptr noundef @__func__.H5B2_open, i32 noundef 218, i64 noundef %109, i64 noundef %110, ptr noundef @.str.4)
  br label %112

112:                                              ; preds = %108
  br label %113

113:                                              ; preds = %112
  store i8 1, ptr %10, align 1, !tbaa !15
  %114 = load i8, ptr %10, align 1, !tbaa !15, !range !17, !noundef !18
  %115 = trunc i8 %114 to i1
  %116 = zext i1 %115 to i8
  store i8 %116, ptr %10, align 1, !tbaa !15
  br label %117

117:                                              ; preds = %113
  br label %118

118:                                              ; preds = %117
  br label %119

119:                                              ; preds = %118
  store ptr null, ptr %9, align 8, !tbaa !11
  br label %154

120:                                              ; No predecessors!
  br label %121

121:                                              ; preds = %120
  br label %122

122:                                              ; preds = %121
  br label %123

123:                                              ; preds = %122
  br label %124

124:                                              ; preds = %123, %96
  %125 = load ptr, ptr %7, align 8, !tbaa !11
  %126 = getelementptr inbounds nuw %struct.H5B2_t, ptr %125, i32 0, i32 0
  %127 = load ptr, ptr %126, align 8, !tbaa !21
  %128 = call i32 @H5B2__hdr_fuse_incr(ptr noundef %127)
  %129 = icmp slt i32 %128, 0
  br i1 %129, label %130, label %149

130:                                              ; preds = %124
  br label %131

131:                                              ; preds = %130
  br label %132

132:                                              ; preds = %131
  br label %133

133:                                              ; preds = %132
  %134 = load i64, ptr @H5E_BTREE_g, align 8, !tbaa !19
  %135 = load i64, ptr @H5E_CANTINC_g, align 8, !tbaa !19
  %136 = call i32 (ptr, ptr, i32, i64, i64, ptr, ...) @H5E_printf_stack(ptr noundef @.str, ptr noundef @__func__.H5B2_open, i32 noundef 223, i64 noundef %134, i64 noundef %135, ptr noundef @.str.5)
  br label %137

137:                                              ; preds = %133
  br label %138

138:                                              ; preds = %137
  store i8 1, ptr %10, align 1, !tbaa !15
  %139 = load i8, ptr %10, align 1, !tbaa !15, !range !17, !noundef !18
  %140 = trunc i8 %139 to i1
  %141 = zext i1 %140 to i8
  store i8 %141, ptr %10, align 1, !tbaa !15
  br label %142

142:                                              ; preds = %138
  br label %143

143:                                              ; preds = %142
  br label %144

144:                                              ; preds = %143
  store ptr null, ptr %9, align 8, !tbaa !11
  br label %154

145:                                              ; No predecessors!
  br label %146

146:                                              ; preds = %145
  br label %147

147:                                              ; preds = %146
  br label %148

148:                                              ; preds = %147
  br label %149

149:                                              ; preds = %148, %124
  %150 = load ptr, ptr %4, align 8, !tbaa !3
  %151 = load ptr, ptr %7, align 8, !tbaa !11
  %152 = getelementptr inbounds nuw %struct.H5B2_t, ptr %151, i32 0, i32 1
  store ptr %150, ptr %152, align 8, !tbaa !23
  %153 = load ptr, ptr %7, align 8, !tbaa !11
  store ptr %153, ptr %9, align 8, !tbaa !11
  br label %154

154:                                              ; preds = %149, %144, %119, %91, %69, %45
  %155 = load ptr, ptr %8, align 8, !tbaa !13
  %156 = icmp ne ptr %155, null
  br i1 %156, label %157, label %177

157:                                              ; preds = %154
  %158 = load ptr, ptr %8, align 8, !tbaa !13
  %159 = call i32 @H5B2__hdr_unprotect(ptr noundef %158, i32 noundef 0)
  %160 = icmp slt i32 %159, 0
  br i1 %160, label %161, label %177

161:                                              ; preds = %157
  br label %162

162:                                              ; preds = %161
  br label %163

163:                                              ; preds = %162
  br label %164

164:                                              ; preds = %163
  %165 = load i64, ptr @H5E_BTREE_g, align 8, !tbaa !19
  %166 = load i64, ptr @H5E_CANTUNPROTECT_g, align 8, !tbaa !19
  %167 = call i32 (ptr, ptr, i32, i64, i64, ptr, ...) @H5E_printf_stack(ptr noundef @.str, ptr noundef @__func__.H5B2_open, i32 noundef 233, i64 noundef %165, i64 noundef %166, ptr noundef @.str.6)
  br label %168

168:                                              ; preds = %164
  br label %169

169:                                              ; preds = %168
  store i8 1, ptr %10, align 1, !tbaa !15
  %170 = load i8, ptr %10, align 1, !tbaa !15, !range !17, !noundef !18
  %171 = trunc i8 %170 to i1
  %172 = zext i1 %171 to i8
  store i8 %172, ptr %10, align 1, !tbaa !15
  br label %173

173:                                              ; preds = %169
  br label %174

174:                                              ; preds = %173
  store ptr null, ptr %9, align 8, !tbaa !11
  br label %175

175:                                              ; preds = %174
  br label %176

176:                                              ; preds = %175
  br label %177

177:                                              ; preds = %176, %157, %154
  %178 = load ptr, ptr %9, align 8, !tbaa !11
  %179 = icmp ne ptr %178, null
  br i1 %179, label %204, label %180

180:                                              ; preds = %177
  %181 = load ptr, ptr %7, align 8, !tbaa !11
  %182 = icmp ne ptr %181, null
  br i1 %182, label %183, label %204

183:                                              ; preds = %180
  %184 = load ptr, ptr %7, align 8, !tbaa !11
  %185 = call i32 @H5B2_close(ptr noundef %184)
  %186 = icmp slt i32 %185, 0
  br i1 %186, label %187, label %203

187:                                              ; preds = %183
  br label %188

188:                                              ; preds = %187
  br label %189

189:                                              ; preds = %188
  br label %190

190:                                              ; preds = %189
  %191 = load i64, ptr @H5E_BTREE_g, align 8, !tbaa !19
  %192 = load i64, ptr @H5E_CANTCLOSEOBJ_g, align 8, !tbaa !19
  %193 = call i32 (ptr, ptr, i32, i64, i64, ptr, ...) @H5E_printf_stack(ptr noundef @.str, ptr noundef @__func__.H5B2_open, i32 noundef 236, i64 noundef %191, i64 noundef %192, ptr noundef @.str.7)
  br label %194

194:                                              ; preds = %190
  br label %195

195:                                              ; preds = %194
  store i8 1, ptr %10, align 1, !tbaa !15
  %196 = load i8, ptr %10, align 1, !tbaa !15, !range !17, !noundef !18
  %197 = trunc i8 %196 to i1
  %198 = zext i1 %197 to i8
  store i8 %198, ptr %10, align 1, !tbaa !15
  br label %199

199:                                              ; preds = %195
  br label %200

200:                                              ; preds = %199
  store ptr null, ptr %9, align 8, !tbaa !11
  br label %201

201:                                              ; preds = %200
  br label %202

202:                                              ; preds = %201
  br label %203

203:                                              ; preds = %202, %183
  br label %204

204:                                              ; preds = %203, %180, %177
  br label %205

205:                                              ; preds = %204, %17
  %206 = load ptr, ptr %9, align 8, !tbaa !11
  call void @llvm.lifetime.end.p0(i64 1, ptr %10) #6
  call void @llvm.lifetime.end.p0(i64 8, ptr %9) #6
  call void @llvm.lifetime.end.p0(i64 8, ptr %8) #6
  call void @llvm.lifetime.end.p0(i64 8, ptr %7) #6
  ret ptr %206
}