; Function Attrs: nounwind uwtable
define ptr @H5B2_open(ptr noundef %0, i64 noundef %1, ptr noundef %2) local_unnamed_addr #0 {
  %4 = load i8, ptr @H5B2_init_g, align 1, !tbaa !3, !range !7, !noundef !8
  %5 = trunc nuw i8 %4 to i1
  %6 = load i8, ptr @H5_libterm_g, align 1, !range !7
  %7 = trunc nuw i8 %6 to i1
  %8 = xor i1 %7, true
  %9 = select i1 %5, i1 true, i1 %8
  br i1 %9, label %10, label %64, !prof !9

10:                                               ; preds = %3
  %11 = tail call ptr @H5B2__hdr_protect(ptr noundef %0, i64 noundef %1, ptr noundef %2, i32 noundef 128) #7
  %12 = icmp eq ptr %11, null
  br i1 %12, label %.thread34, label %13

13:                                               ; preds = %10
  %14 = getelementptr inbounds nuw i8, ptr %11, i64 328
  %15 = load i8, ptr %14, align 8, !tbaa !34, !range !7, !noundef !8
  %16 = trunc nuw i8 %15 to i1
  br i1 %16, label %17, label %21

17:                                               ; preds = %13
  %18 = load i64, ptr @H5E_BTREE_g, align 8, !tbaa !11
  %19 = load i64, ptr @H5E_CANTOPENOBJ_g, align 8, !tbaa !11
  %20 = tail call i32 (ptr, ptr, i32, i64, i64, ptr, ...) @H5E_printf_stack(ptr noundef nonnull @.str, ptr noundef nonnull @__func__.H5B2_open, i32 noundef 208, i64 noundef %18, i64 noundef %19, ptr noundef nonnull @.str.8) #7
  br label %47

21:                                               ; preds = %13
  %22 = tail call noalias ptr @H5FL_reg_malloc(ptr noundef nonnull @H5_H5B2_t_reg_free_list) #7
  %23 = icmp eq ptr %22, null
  br i1 %23, label %24, label %28

24:                                               ; preds = %21
  %25 = load i64, ptr @H5E_BTREE_g, align 8, !tbaa !11
  %26 = load i64, ptr @H5E_CANTALLOC_g, align 8, !tbaa !11
  %27 = tail call i32 (ptr, ptr, i32, i64, i64, ptr, ...) @H5E_printf_stack(ptr noundef nonnull @.str, ptr noundef nonnull @__func__.H5B2_open, i32 noundef 212, i64 noundef %25, i64 noundef %26, ptr noundef nonnull @.str.2) #7
  br label %47

28:                                               ; preds = %21
  store ptr %11, ptr %22, align 8, !tbaa !13
  %29 = tail call i32 @H5B2__hdr_incr(ptr noundef nonnull %11) #7
  %30 = icmp slt i32 %29, 0
  br i1 %30, label %31, label %35

31:                                               ; preds = %28
  %32 = load i64, ptr @H5E_BTREE_g, align 8, !tbaa !11
  %33 = load i64, ptr @H5E_CANTINC_g, align 8, !tbaa !11
  %34 = tail call i32 (ptr, ptr, i32, i64, i64, ptr, ...) @H5E_printf_stack(ptr noundef nonnull @.str, ptr noundef nonnull @__func__.H5B2_open, i32 noundef 218, i64 noundef %32, i64 noundef %33, ptr noundef nonnull @.str.4) #7
  br label %47

35:                                               ; preds = %28
  %36 = tail call i32 @H5B2__hdr_fuse_incr(ptr noundef nonnull %11) #7
  %37 = icmp slt i32 %36, 0
  br i1 %37, label %38, label %42

38:                                               ; preds = %35
  %39 = load i64, ptr @H5E_BTREE_g, align 8, !tbaa !11
  %40 = load i64, ptr @H5E_CANTINC_g, align 8, !tbaa !11
  %41 = tail call i32 (ptr, ptr, i32, i64, i64, ptr, ...) @H5E_printf_stack(ptr noundef nonnull @.str, ptr noundef nonnull @__func__.H5B2_open, i32 noundef 223, i64 noundef %39, i64 noundef %40, ptr noundef nonnull @.str.5) #7
  br label %47

42:                                               ; preds = %35
  %43 = getelementptr inbounds nuw i8, ptr %22, i64 8
  store ptr %0, ptr %43, align 8, !tbaa !18
  br label %47

.thread34:                                        ; preds = %10
  %44 = load i64, ptr @H5E_BTREE_g, align 8, !tbaa !11
  %45 = load i64, ptr @H5E_CANTPROTECT_g, align 8, !tbaa !11
  %46 = tail call i32 (ptr, ptr, i32, i64, i64, ptr, ...) @H5E_printf_stack(ptr noundef nonnull @.str, ptr noundef nonnull @__func__.H5B2_open, i32 noundef 204, i64 noundef %44, i64 noundef %45, ptr noundef nonnull @.str.3) #7
  br label %64

47:                                               ; preds = %42, %38, %31, %24, %17
  %.024.ph = phi ptr [ %22, %42 ], [ %22, %38 ], [ %22, %31 ], [ null, %24 ], [ null, %17 ]
  %.1.ph = phi ptr [ %22, %42 ], [ null, %38 ], [ null, %31 ], [ null, %24 ], [ null, %17 ]
  %48 = tail call i32 @H5B2__hdr_unprotect(ptr noundef nonnull %11, i32 noundef 0) #7
  %49 = icmp slt i32 %48, 0
  br i1 %49, label %50, label %54

50:                                               ; preds = %47
  %51 = load i64, ptr @H5E_BTREE_g, align 8, !tbaa !11
  %52 = load i64, ptr @H5E_CANTUNPROTECT_g, align 8, !tbaa !11
  %53 = tail call i32 (ptr, ptr, i32, i64, i64, ptr, ...) @H5E_printf_stack(ptr noundef nonnull @.str, ptr noundef nonnull @__func__.H5B2_open, i32 noundef 233, i64 noundef %51, i64 noundef %52, ptr noundef nonnull @.str.6) #7
  br label %54

54:                                               ; preds = %50, %47
  %.2 = phi ptr [ null, %50 ], [ %.1.ph, %47 ]
  %55 = icmp eq ptr %.2, null
  %56 = icmp ne ptr %.024.ph, null
  %or.cond = and i1 %56, %55
  br i1 %or.cond, label %57, label %64

57:                                               ; preds = %54
  %58 = tail call i32 @H5B2_close(ptr noundef nonnull %.024.ph)
  %59 = icmp slt i32 %58, 0
  br i1 %59, label %60, label %64

60:                                               ; preds = %57
  %61 = load i64, ptr @H5E_BTREE_g, align 8, !tbaa !11
  %62 = load i64, ptr @H5E_CANTCLOSEOBJ_g, align 8, !tbaa !11
  %63 = tail call i32 (ptr, ptr, i32, i64, i64, ptr, ...) @H5E_printf_stack(ptr noundef nonnull @.str, ptr noundef nonnull @__func__.H5B2_open, i32 noundef 236, i64 noundef %61, i64 noundef %62, ptr noundef nonnull @.str.7) #7
  br label %64

64:                                               ; preds = %.thread34, %54, %60, %57, %3
  %.0 = phi ptr [ null, %60 ], [ null, %57 ], [ %.2, %54 ], [ null, %3 ], [ null, %.thread34 ]
  ret ptr %.0
}